; Function Attrs: nounwind uwtable
define internal fastcc void @Cba_NtkMissingFonNames(ptr noundef captures(none) %0, ptr noundef %1) unnamed_addr #1 {
  %3 = getelementptr i8, ptr %0, i64 28
  %.val3443 = load i32, ptr %3, align 4
  %4 = icmp sgt i32 %.val3443, 0
  br i1 %4, label %.lr.ph, label %.critedge.preheader

.lr.ph:                                           ; preds = %2
  %5 = getelementptr i8, ptr %0, i64 32
  %6 = getelementptr i8, ptr %0, i64 128
  %7 = getelementptr inbounds nuw i8, ptr %0, i64 264
  %8 = getelementptr i8, ptr %0, i64 272
  %9 = getelementptr inbounds nuw i8, ptr %0, i64 200
  %10 = getelementptr i8, ptr %0, i64 208
  br label %20

.critedge.preheader:                              ; preds = %35, %2
  %11 = getelementptr i8, ptr %0, i64 44
  %.val3545 = load i32, ptr %11, align 4
  %12 = icmp sgt i32 %.val3545, 0
  br i1 %12, label %.lr.ph47, label %.critedge2

.lr.ph47:                                         ; preds = %.critedge.preheader
  %13 = getelementptr i8, ptr %0, i64 48
  %14 = getelementptr i8, ptr %0, i64 112
  %15 = getelementptr i8, ptr %0, i64 144
  %16 = getelementptr inbounds nuw i8, ptr %0, i64 264
  %17 = getelementptr i8, ptr %0, i64 272
  %18 = getelementptr inbounds nuw i8, ptr %0, i64 200
  %19 = getelementptr i8, ptr %0, i64 208
  br label %38

20:                                               ; preds = %.lr.ph, %35
  %indvars.iv = phi i64 [ 0, %.lr.ph ], [ %indvars.iv.next, %35 ]
  %.val36 = load ptr, ptr %5, align 8
  %21 = getelementptr inbounds nuw i32, ptr %.val36, i64 %indvars.iv
  %22 = load i32, ptr %21, align 4
  %.val = load ptr, ptr %6, align 8
  %23 = sext i32 %22 to i64
  %24 = getelementptr inbounds i32, ptr %.val, i64 %23
  %25 = load i32, ptr %24, align 4
  %26 = add nsw i32 %25, 1
  tail call fastcc void @Vec_IntFillExtra(ptr noundef nonnull %7, i32 noundef %26, i32 noundef 0)
  %.val.i.i = load ptr, ptr %8, align 8
  %27 = sext i32 %25 to i64
  %28 = getelementptr inbounds i32, ptr %.val.i.i, i64 %27
  %29 = load i32, ptr %28, align 4
  %.not31 = icmp eq i32 %29, 0
  br i1 %.not31, label %30, label %35

30:                                               ; preds = %20
  %31 = add nsw i32 %22, 1
  tail call fastcc void @Vec_IntFillExtra(ptr noundef nonnull %9, i32 noundef %31, i32 noundef 0)
  %.val.i.i38 = load ptr, ptr %10, align 8
  %32 = getelementptr inbounds i32, ptr %.val.i.i38, i64 %23
  %33 = load i32, ptr %32, align 4
  tail call fastcc void @Vec_IntFillExtra(ptr noundef nonnull %7, i32 noundef %26, i32 noundef 0)
  %.val.i.i39 = load ptr, ptr %8, align 8
  %34 = getelementptr inbounds i32, ptr %.val.i.i39, i64 %27
  store i32 %33, ptr %34, align 4
  br label %35

35:                                               ; preds = %20, %30
  %indvars.iv.next = add nuw nsw i64 %indvars.iv, 1
  %.val34 = load i32, ptr %3, align 4
  %36 = sext i32 %.val34 to i64
  %37 = icmp slt i64 %indvars.iv.next, %36
  br i1 %37, label %20, label %.critedge.preheader, !llvm.loop !73

38:                                               ; preds = %.lr.ph47, %.critedge
  %indvars.iv49 = phi i64 [ 0, %.lr.ph47 ], [ %indvars.iv.next50, %.critedge ]
  %.val37 = load ptr, ptr %13, align 8
  %39 = getelementptr inbounds nuw i32, ptr %.val37, i64 %indvars.iv49
  %40 = load i32, ptr %39, align 4
  %.val32 = load ptr, ptr %14, align 8
  %.val33 = load ptr, ptr %15, align 8
  %41 = sext i32 %40 to i64
  %42 = getelementptr inbounds i32, ptr %.val32, i64 %41
  %43 = load i32, ptr %42, align 4
  %44 = sext i32 %43 to i64
  %45 = getelementptr inbounds i32, ptr %.val33, i64 %44
  %46 = load i32, ptr %45, align 4
  %47 = icmp slt i32 %46, 1
  br i1 %47, label %.critedge, label %48

48:                                               ; preds = %38
  %49 = add nuw nsw i32 %46, 1
  tail call fastcc void @Vec_IntFillExtra(ptr noundef nonnull %16, i32 noundef %49, i32 noundef 0)
  %.val.i.i40 = load ptr, ptr %17, align 8
  %50 = zext nneg i32 %46 to i64
  %51 = getelementptr inbounds nuw i32, ptr %.val.i.i40, i64 %50
  %52 = load i32, ptr %51, align 4
  %.not30 = icmp eq i32 %52, 0
  br i1 %.not30, label %53, label %.critedge

53:                                               ; preds = %48
  %54 = add nsw i32 %40, 1
  tail call fastcc void @Vec_IntFillExtra(ptr noundef nonnull %18, i32 noundef %54, i32 noundef 0)
  %.val.i.i41 = load ptr, ptr %19, align 8
  %55 = getelementptr inbounds i32, ptr %.val.i.i41, i64 %41
  %56 = load i32, ptr %55, align 4
  tail call fastcc void @Vec_IntFillExtra(ptr noundef nonnull %16, i32 noundef %49, i32 noundef 0)
  %.val.i.i42 = load ptr, ptr %17, align 8
  %57 = getelementptr inbounds nuw i32, ptr %.val.i.i42, i64 %50
  store i32 %56, ptr %57, align 4
  br label %.critedge

.critedge:                                        ; preds = %38, %48, %53
  %indvars.iv.next50 = add nuw nsw i64 %indvars.iv49, 1
  %.val35 = load i32, ptr %11, align 4
  %58 = sext i32 %.val35 to i64
  %59 = icmp slt i64 %indvars.iv.next50, %58
  br i1 %59, label %38, label %.critedge2, !llvm.loop !74

.critedge2:                                       ; preds = %.critedge, %.critedge.preheader
  tail call fastcc void @Cba_NtkAddMissingFonNames(ptr noundef nonnull %0, ptr noundef %1)
  ret void
}